; Function Attrs: nofree norecurse nosync nounwind memory(readwrite, inaccessiblemem: none) uwtable
define internal void @Blit2bto2(ptr noundef readonly captures(none) %0) #1 {
  %2 = getelementptr inbounds nuw i8, ptr %0, i64 48
  %3 = load i32, ptr %2, align 8
  %4 = getelementptr inbounds nuw i8, ptr %0, i64 52
  %5 = load i32, ptr %4, align 4
  %6 = getelementptr inbounds nuw i8, ptr %0, i64 8
  %7 = load ptr, ptr %6, align 8
  %8 = getelementptr inbounds nuw i8, ptr %0, i64 28
  %9 = load i32, ptr %8, align 4
  %10 = getelementptr inbounds nuw i8, ptr %0, i64 40
  %11 = load ptr, ptr %10, align 8
  %12 = getelementptr inbounds nuw i8, ptr %0, i64 60
  %13 = load i32, ptr %12, align 4
  %14 = sdiv i32 %13, 2
  %15 = getelementptr inbounds nuw i8, ptr %0, i64 96
  %16 = load ptr, ptr %15, align 8
  %17 = add nsw i32 %3, 3
  %.neg74.i = sdiv i32 %17, -4
  %18 = add i32 %.neg74.i, %3
  %19 = add nsw i32 %18, %9
  %20 = getelementptr inbounds nuw i8, ptr %0, i64 64
  %21 = load ptr, ptr %20, align 8
  %22 = load i32, ptr %21, align 4
  %23 = and i32 %22, 15728640
  %24 = icmp eq i32 %23, 1048576
  %.not77.i18 = icmp eq i32 %5, 0
  br i1 %24, label %.preheader1, label %.preheader3

.preheader3:                                      ; preds = %1
  br i1 %.not77.i18, label %BlitBto2.exit, label %.preheader2.lr.ph

.preheader2.lr.ph:                                ; preds = %.preheader3
  %25 = icmp sgt i32 %3, 0
  %26 = sext i32 %19 to i64
  %27 = sext i32 %14 to i64
  br i1 %25, label %.preheader2.us, label %BlitBto2.exit

.preheader2.us:                                   ; preds = %.preheader2.lr.ph, %._crit_edge.us
  %.in = phi i32 [ %28, %._crit_edge.us ], [ %5, %.preheader2.lr.ph ]
  %.3.i12.us = phi ptr [ %42, %._crit_edge.us ], [ %7, %.preheader2.lr.ph ]
  %.271.i11.us = phi ptr [ %43, %._crit_edge.us ], [ %11, %.preheader2.lr.ph ]
  %28 = add nsw i32 %.in, -1
  br label %29

29:                                               ; preds = %.preheader2.us, %34
  %.1.i8.us = phi i32 [ 0, %.preheader2.us ], [ %41, %34 ]
  %.060.i7.us = phi i8 [ 0, %.preheader2.us ], [ %39, %34 ]
  %.4.i6.us = phi ptr [ %.3.i12.us, %.preheader2.us ], [ %.5.i.us, %34 ]
  %.372.i5.us = phi ptr [ %.271.i11.us, %.preheader2.us ], [ %40, %34 ]
  %30 = and i32 %.1.i8.us, 3
  %.not76.i.us = icmp eq i32 %30, 0
  br i1 %.not76.i.us, label %31, label %34

31:                                               ; preds = %29
  %32 = getelementptr inbounds nuw i8, ptr %.4.i6.us, i64 1
  %33 = load i8, ptr %.4.i6.us, align 1
  br label %34

34:                                               ; preds = %31, %29
  %.5.i.us = phi ptr [ %.4.i6.us, %29 ], [ %32, %31 ]
  %.161.i.us = phi i8 [ %.060.i7.us, %29 ], [ %33, %31 ]
  %35 = lshr i8 %.161.i.us, 6
  %36 = zext nneg i8 %35 to i64
  %37 = getelementptr inbounds nuw i16, ptr %16, i64 %36
  %38 = load i16, ptr %37, align 2
  store i16 %38, ptr %.372.i5.us, align 2
  %39 = shl i8 %.161.i.us, 2
  %40 = getelementptr inbounds nuw i8, ptr %.372.i5.us, i64 2
  %41 = add nuw nsw i32 %.1.i8.us, 1
  %exitcond.not = icmp eq i32 %41, %3
  br i1 %exitcond.not, label %._crit_edge.us, label %29, !llvm.loop !20

._crit_edge.us:                                   ; preds = %34
  %42 = getelementptr inbounds i8, ptr %.5.i.us, i64 %26
  %43 = getelementptr inbounds i16, ptr %40, i64 %27
  %.not.i.us = icmp eq i32 %28, 0
  br i1 %.not.i.us, label %BlitBto2.exit, label %.preheader2.us, !llvm.loop !21

.preheader1:                                      ; preds = %1
  br i1 %.not77.i18, label %BlitBto2.exit, label %.preheader.lr.ph

.preheader.lr.ph:                                 ; preds = %.preheader1
  %44 = icmp sgt i32 %3, 0
  %45 = sext i32 %19 to i64
  %46 = sext i32 %14 to i64
  br i1 %44, label %.preheader.us, label %BlitBto2.exit

.preheader.us:                                    ; preds = %.preheader.lr.ph, %._crit_edge.us21
  %.in28 = phi i32 [ %47, %._crit_edge.us21 ], [ %5, %.preheader.lr.ph ]
  %.066.i20.us = phi ptr [ %61, %._crit_edge.us21 ], [ %7, %.preheader.lr.ph ]
  %.069.i19.us = phi ptr [ %62, %._crit_edge.us21 ], [ %11, %.preheader.lr.ph ]
  %47 = add nsw i32 %.in28, -1
  br label %48

48:                                               ; preds = %.preheader.us, %53
  %.0.i16.us = phi i32 [ 0, %.preheader.us ], [ %60, %53 ]
  %.064.i15.us = phi i8 [ 0, %.preheader.us ], [ %58, %53 ]
  %.167.i14.us = phi ptr [ %.066.i20.us, %.preheader.us ], [ %.2.i.us, %53 ]
  %.170.i13.us = phi ptr [ %.069.i19.us, %.preheader.us ], [ %59, %53 ]
  %49 = and i32 %.0.i16.us, 3
  %.not78.i.us = icmp eq i32 %49, 0
  br i1 %.not78.i.us, label %50, label %53

50:                                               ; preds = %48
  %51 = getelementptr inbounds nuw i8, ptr %.167.i14.us, i64 1
  %52 = load i8, ptr %.167.i14.us, align 1
  br label %53

53:                                               ; preds = %50, %48
  %.2.i.us = phi ptr [ %.167.i14.us, %48 ], [ %51, %50 ]
  %.165.i.us = phi i8 [ %.064.i15.us, %48 ], [ %52, %50 ]
  %54 = and i8 %.165.i.us, 3
  %55 = zext nneg i8 %54 to i64
  %56 = getelementptr inbounds nuw i16, ptr %16, i64 %55
  %57 = load i16, ptr %56, align 2
  store i16 %57, ptr %.170.i13.us, align 2
  %58 = lshr i8 %.165.i.us, 2
  %59 = getelementptr inbounds nuw i8, ptr %.170.i13.us, i64 2
  %60 = add nuw nsw i32 %.0.i16.us, 1
  %exitcond27.not = icmp eq i32 %60, %3
  br i1 %exitcond27.not, label %._crit_edge.us21, label %48, !llvm.loop !22

._crit_edge.us21:                                 ; preds = %53
  %61 = getelementptr inbounds i8, ptr %.2.i.us, i64 %45
  %62 = getelementptr inbounds i16, ptr %59, i64 %46
  %.not77.i.us = icmp eq i32 %47, 0
  br i1 %.not77.i.us, label %BlitBto2.exit, label %.preheader.us, !llvm.loop !23

BlitBto2.exit:                                    ; preds = %._crit_edge.us, %._crit_edge.us21, %.preheader.lr.ph, %.preheader2.lr.ph, %.preheader3, %.preheader1
  ret void
}